target datalayout = "e-m:e-p270:32:32-p271:32:32-p272:64:64-i64:64-i128:128-f80:128-n8:16:32:64-S128"
target triple = "x86_64-pc-linux-gnu"

%"class.std::__cxx11::basic_string" = type { %"struct.std::__cxx11::basic_string<char>::_Alloc_hider", i64, %union.anon }
%"struct.std::__cxx11::basic_string<char>::_Alloc_hider" = type { ptr }
%union.anon = type { i64, [8 x i8] }
%"class.std::basic_ios" = type { %"class.std::ios_base", ptr, i8, i8, ptr, ptr, ptr, ptr }
%"class.std::ios_base" = type { ptr, i64, i64, i32, i32, i32, ptr, %"struct.std::ios_base::_Words", [8 x %"struct.std::ios_base::_Words"], i32, ptr, %"class.std::locale" }
%"struct.std::ios_base::_Words" = type { ptr, i64 }
%"class.std::locale" = type { ptr }
%"class.std::allocator" = type { i8 }
%"class.std::fpos" = type { i64, %struct.__mbstate_t }
%struct.__mbstate_t = type { i32, %union.anon.3 }
%union.anon.3 = type { i32 }
%"class.std::__cxx11::basic_stringstream" = type { %"class.std::basic_iostream.base", %"class.std::__cxx11::basic_stringbuf", %"class.std::basic_ios" }
%"class.std::basic_iostream.base" = type { %"class.std::basic_istream.base", %"class.std::basic_ostream.base" }
%"class.std::basic_istream.base" = type { ptr, i64 }
%"class.std::basic_ostream.base" = type { ptr }
%"class.std::__cxx11::basic_stringbuf" = type { %"class.std::basic_streambuf", i32, %"class.std::__cxx11::basic_string" }
%"class.std::basic_streambuf" = type { ptr, ptr, ptr, ptr, ptr, ptr, ptr, %"class.std::locale" }

; Function Attrs: mustprogress nounwind uwtable
define linkonce_odr noundef i64 @_ZNKSt4fposI11__mbstate_tEcvlEv(ptr noundef nonnull align 8 dereferenceable(16) %0) #6 comdat align 2 {
  %2 = alloca ptr, align 8
  store ptr %0, ptr %2, align 8
  %3 = load ptr, ptr %2, align 8
  %4 = getelementptr inbounds %"class.std::fpos", ptr %3, i32 0, i32 0
  %5 = load i64, ptr %4, align 8
  ret i64 %5
}

; Function Attrs: mustprogress uwtable
define linkonce_odr noundef zeroext i1 @_ZSteqI11__mbstate_tEbRKSt4fposIT_ES5_(ptr noundef nonnull align 8 dereferenceable(16) %0, ptr noundef nonnull align 8 dereferenceable(16) %1) #4 comdat {
  %3 = alloca ptr, align 8
  %4 = alloca ptr, align 8
  store ptr %0, ptr %3, align 8
  store ptr %1, ptr %4, align 8
  %5 = load ptr, ptr %3, align 8
  %6 = call noundef i64 @_ZNKSt4fposI11__mbstate_tEcvlEv(ptr noundef nonnull align 8 dereferenceable(16) %5)
  %7 = load ptr, ptr %4, align 8
  %8 = call noundef i64 @_ZNKSt4fposI11__mbstate_tEcvlEv(ptr noundef nonnull align 8 dereferenceable(16) %7)
  %9 = icmp eq i64 %6, %8
  ret i1 %9
}

; Function Attrs: mustprogress nounwind uwtable
define linkonce_odr noundef i32 @_ZStorSt13_Ios_OpenmodeS_(i32 noundef %0, i32 noundef %1) #6 comdat {
  %3 = alloca i32, align 4
  %4 = alloca i32, align 4
  store i32 %0, ptr %3, align 4
  store i32 %1, ptr %4, align 4
  %5 = load i32, ptr %3, align 4
  %6 = load i32, ptr %4, align 4
  %7 = or i32 %5, %6
  ret i32 %7
}

; Function Attrs: mustprogress nounwind uwtable
define linkonce_odr void @_ZNSt4fposI11__mbstate_tEC2El(ptr noundef nonnull align 8 dereferenceable(16) %0, i64 noundef %1) unnamed_addr #6 comdat align 2 {
  %3 = alloca ptr, align 8
  %4 = alloca i64, align 8
  store ptr %0, ptr %3, align 8
  store i64 %1, ptr %4, align 8
  %5 = load ptr, ptr %3, align 8
  %6 = getelementptr inbounds %"class.std::fpos", ptr %5, i32 0, i32 0
  %7 = load i64, ptr %4, align 8
  store i64 %7, ptr %6, align 8
  %8 = getelementptr inbounds %"class.std::fpos", ptr %5, i32 0, i32 1
  call void @llvm.memset.p0.i64(ptr align 8 %8, i8 0, i64 8, i1 false)
  ret void
}

; Function Attrs: mustprogress uwtable
define noundef i32 @_ZN2mu4Test12ParserTester8IsHexValEPKcPiPd(ptr noundef %0, ptr noundef %1, ptr noundef %2) #4 align 2 personality ptr @__gxx_personality_v0 {
  %4 = alloca i32, align 4
  %5 = alloca ptr, align 8
  %6 = alloca ptr, align 8
  %7 = alloca ptr, align 8
  %8 = alloca i32, align 4
  %9 = alloca %"class.std::fpos", align 8
  %10 = alloca %"class.std::__cxx11::basic_stringstream", align 8
  %11 = alloca %"class.std::__cxx11::basic_string", align 8
  %12 = alloca %"class.std::allocator", align 1
  %13 = alloca ptr, align 8
  %14 = alloca i32, align 4
  %15 = alloca %"class.std::fpos", align 8
  %16 = alloca %"class.std::fpos", align 8
  %17 = alloca i32, align 4
  store ptr %0, ptr %5, align 8
  store ptr %1, ptr %6, align 8
  store ptr %2, ptr %7, align 8
  %18 = load ptr, ptr %5, align 8
  %19 = getelementptr inbounds i8, ptr %18, i64 1
  %20 = load i8, ptr %19, align 1
  %21 = sext i8 %20 to i32
  %22 = icmp eq i32 %21, 0
  br i1 %22, label %35, label %23

23:                                               ; preds = %3
  %24 = load ptr, ptr %5, align 8
  %25 = getelementptr inbounds i8, ptr %24, i64 0
  %26 = load i8, ptr %25, align 1
  %27 = sext i8 %26 to i32
  %28 = icmp ne i32 %27, 48
  br i1 %28, label %35, label %29

29:                                               ; preds = %23
  %30 = load ptr, ptr %5, align 8
  %31 = getelementptr inbounds i8, ptr %30, i64 1
  %32 = load i8, ptr %31, align 1
  %33 = sext i8 %32 to i32
  %34 = icmp ne i32 %33, 120
  br i1 %34, label %35, label %36

35:                                               ; preds = %29, %23, %3
  store i32 0, ptr %4, align 4
  br label %82

36:                                               ; preds = %29
  store i32 0, ptr %8, align 4
  call void @_ZNSt4fposI11__mbstate_tEC2El(ptr noundef nonnull align 8 dereferenceable(16) %9, i64 noundef 0)
  %37 = load ptr, ptr %5, align 8
  %38 = getelementptr inbounds i8, ptr %37, i64 2
  call void @_ZNSaIcEC1Ev(ptr noundef nonnull align 1 dereferenceable(1) %12) #3
  invoke void @_ZNSt7__cxx1112basic_stringIcSt11char_traitsIcESaIcEEC1EPKcRKS3_(ptr noundef nonnull align 8 dereferenceable(32) %11, ptr noundef %38, ptr noundef nonnull align 1 dereferenceable(1) %12)
          to label %39 unwind label %57

39:                                               ; preds = %36
  %40 = invoke noundef i32 @_ZStorSt13_Ios_OpenmodeS_(i32 noundef 16, i32 noundef 8)
          to label %41 unwind label %61

41:                                               ; preds = %39
  invoke void @_ZNSt7__cxx1118basic_stringstreamIcSt11char_traitsIcESaIcEEC1ERKNS_12basic_stringIcS2_S3_EESt13_Ios_Openmode(ptr noundef nonnull align 8 dereferenceable(128) %10, ptr noundef nonnull align 8 dereferenceable(32) %11, i32 noundef %40)
          to label %42 unwind label %61

42:                                               ; preds = %41
  call void @_ZNSt7__cxx1112basic_stringIcSt11char_traitsIcESaIcEED1Ev(ptr noundef nonnull align 8 dereferenceable(32) %11) #3
  call void @_ZNSaIcED1Ev(ptr noundef nonnull align 1 dereferenceable(1) %12) #3
  %43 = invoke noundef nonnull align 8 dereferenceable(16) ptr @_ZNSirsEPFRSt8ios_baseS0_E(ptr noundef nonnull align 8 dereferenceable(16) %10, ptr noundef @_ZSt3hexRSt8ios_base)
          to label %44 unwind label %66

44:                                               ; preds = %42
  %45 = invoke noundef nonnull align 8 dereferenceable(16) ptr @_ZNSirsERj(ptr noundef nonnull align 8 dereferenceable(16) %43, ptr noundef nonnull align 4 dereferenceable(4) %8)
          to label %46 unwind label %66

46:                                               ; preds = %44
  %47 = invoke { i64, i64 } @_ZNSi5tellgEv(ptr noundef nonnull align 8 dereferenceable(16) %10)
          to label %48 unwind label %66

48:                                               ; preds = %46
  %49 = getelementptr inbounds { i64, i64 }, ptr %15, i32 0, i32 0
  %50 = extractvalue { i64, i64 } %47, 0
  store i64 %50, ptr %49, align 8
  %51 = getelementptr inbounds { i64, i64 }, ptr %15, i32 0, i32 1
  %52 = extractvalue { i64, i64 } %47, 1
  store i64 %52, ptr %51, align 8
  call void @llvm.memcpy.p0.p0.i64(ptr align 8 %9, ptr align 8 %15, i64 16, i1 false)
  invoke void @_ZNSt4fposI11__mbstate_tEC2El(ptr noundef nonnull align 8 dereferenceable(16) %16, i64 noundef 0)
          to label %53 unwind label %66

53:                                               ; preds = %48
  %54 = invoke noundef zeroext i1 @_ZSteqI11__mbstate_tEbRKSt4fposIT_ES5_(ptr noundef nonnull align 8 dereferenceable(16) %9, ptr noundef nonnull align 8 dereferenceable(16) %16)
          to label %55 unwind label %66

55:                                               ; preds = %53
  br i1 %54, label %56, label %70

56:                                               ; preds = %55
  store i32 1, ptr %4, align 4
  store i32 1, ptr %17, align 4
  br label %81

57:                                               ; preds = %36
  %58 = landingpad { ptr, i32 }
          cleanup
  %59 = extractvalue { ptr, i32 } %58, 0
  store ptr %59, ptr %13, align 8
  %60 = extractvalue { ptr, i32 } %58, 1
  store i32 %60, ptr %14, align 4
  br label %65

61:                                               ; preds = %41, %39
  %62 = landingpad { ptr, i32 }
          cleanup
  %63 = extractvalue { ptr, i32 } %62, 0
  store ptr %63, ptr %13, align 8
  %64 = extractvalue { ptr, i32 } %62, 1
  store i32 %64, ptr %14, align 4
  call void @_ZNSt7__cxx1112basic_stringIcSt11char_traitsIcESaIcEED1Ev(ptr noundef nonnull align 8 dereferenceable(32) %11) #3
  br label %65

65:                                               ; preds = %61, %57
  call void @_ZNSaIcED1Ev(ptr noundef nonnull align 1 dereferenceable(1) %12) #3
  br label %84

66:                                               ; preds = %70, %53, %48, %46, %44, %42
  %67 = landingpad { ptr, i32 }
          cleanup
  %68 = extractvalue { ptr, i32 } %67, 0
  store ptr %68, ptr %13, align 8
  %69 = extractvalue { ptr, i32 } %67, 1
  store i32 %69, ptr %14, align 4
  call void @_ZNSt7__cxx1118basic_stringstreamIcSt11char_traitsIcESaIcEED1Ev(ptr noundef nonnull align 8 dereferenceable(128) %10) #3
  br label %84

70:                                               ; preds = %55
  %71 = invoke noundef i64 @_ZNKSt4fposI11__mbstate_tEcvlEv(ptr noundef nonnull align 8 dereferenceable(16) %9)
          to label %72 unwind label %66

72:                                               ; preds = %70
  %73 = add nsw i64 2, %71
  %74 = trunc i64 %73 to i32
  %75 = load ptr, ptr %6, align 8
  %76 = load i32, ptr %75, align 4
  %77 = add nsw i32 %76, %74
  store i32 %77, ptr %75, align 4
  %78 = load i32, ptr %8, align 4
  %79 = uitofp i32 %78 to double
  %80 = load ptr, ptr %7, align 8
  store double %79, ptr %80, align 8
  store i32 1, ptr %4, align 4
  store i32 1, ptr %17, align 4
  br label %81

81:                                               ; preds = %72, %56
  call void @_ZNSt7__cxx1118basic_stringstreamIcSt11char_traitsIcESaIcEED1Ev(ptr noundef nonnull align 8 dereferenceable(128) %10) #3
  br label %82

82:                                               ; preds = %81, %35
  %83 = load i32, ptr %4, align 4
  ret i32 %83

84:                                               ; preds = %66, %65
  %85 = load ptr, ptr %13, align 8
  %86 = load i32, ptr %14, align 4
  %87 = insertvalue { ptr, i32 } poison, ptr %85, 0
  %88 = insertvalue { ptr, i32 } %87, i32 %86, 1
  resume { ptr, i32 } %88
}